target datalayout = "e-m:e-p270:32:32-p271:32:32-p272:64:64-i64:64-i128:128-f80:128-n8:16:32:64-S128"
target triple = "x86_64-pc-linux-gnu"

%struct.decNumber = type { i32, i32, i8, [1 x i8] }
%struct.decContext = type { i32, i32, i32, i32, i32, i32, i8 }

@_ZL8d2utable = internal constant [50 x i8] c"\00\01\02\03\04\05\06\07\08\09\0A\0B\0C\0D\0E\0F\10\11\12\13\14\15\16\17\18\19\1A\1B\1C\1D\1E\1F !\22#$%&'()*+,-./01", align 16

; Function Attrs: mustprogress uwtable
define internal void @_ZL9decStatusP9decNumberjP10decContext(ptr noundef %0, i32 noundef %1, ptr noundef %2) #0 {
  %4 = alloca ptr, align 8
  %5 = alloca i32, align 4
  %6 = alloca ptr, align 8
  store ptr %0, ptr %4, align 8, !tbaa !3
  store i32 %1, ptr %5, align 4, !tbaa !7
  store ptr %2, ptr %6, align 8, !tbaa !3
  %7 = load i32, ptr %5, align 4, !tbaa !7
  %8 = and i32 %7, 221
  %9 = icmp ne i32 %8, 0
  br i1 %9, label %10, label %23

10:                                               ; preds = %3
  %11 = load i32, ptr %5, align 4, !tbaa !7
  %12 = and i32 %11, 1073741824
  %13 = icmp ne i32 %12, 0
  br i1 %13, label %14, label %17

14:                                               ; preds = %10
  %15 = load i32, ptr %5, align 4, !tbaa !7
  %16 = and i32 %15, -1073741825
  store i32 %16, ptr %5, align 4, !tbaa !7
  br label %22

17:                                               ; preds = %10
  %18 = load ptr, ptr %4, align 8, !tbaa !3
  %19 = call ptr @uprv_decNumberZero_77(ptr noundef %18)
  %20 = load ptr, ptr %4, align 8, !tbaa !3
  %21 = getelementptr inbounds nuw %struct.decNumber, ptr %20, i32 0, i32 2
  store i8 32, ptr %21, align 4, !tbaa !9
  br label %22

22:                                               ; preds = %17, %14
  br label %23

23:                                               ; preds = %22, %3
  %24 = load ptr, ptr %6, align 8, !tbaa !3
  %25 = load i32, ptr %5, align 4, !tbaa !7
  %26 = call ptr @uprv_decContextSetStatus_77(ptr noundef %24, i32 noundef %25)
  ret void
}

; Function Attrs: mustprogress uwtable
define ptr @uprv_decNumberQuantize_77(ptr noundef %0, ptr noundef %1, ptr noundef %2, ptr noundef %3) #0 {
  %5 = alloca ptr, align 8
  %6 = alloca ptr, align 8
  %7 = alloca ptr, align 8
  %8 = alloca ptr, align 8
  %9 = alloca i32, align 4
  store ptr %0, ptr %5, align 8, !tbaa !3
  store ptr %1, ptr %6, align 8, !tbaa !3
  store ptr %2, ptr %7, align 8, !tbaa !3
  store ptr %3, ptr %8, align 8, !tbaa !3
  call void @llvm.lifetime.start.p0(i64 4, ptr %9) #8
  store i32 0, ptr %9, align 4, !tbaa !7
  %10 = load ptr, ptr %5, align 8, !tbaa !3
  %11 = load ptr, ptr %6, align 8, !tbaa !3
  %12 = load ptr, ptr %7, align 8, !tbaa !3
  %13 = load ptr, ptr %8, align 8, !tbaa !3
  %14 = call noundef ptr @_ZL13decQuantizeOpP9decNumberPKS_S2_P10decContexthPj(ptr noundef %10, ptr noundef %11, ptr noundef %12, ptr noundef %13, i8 noundef zeroext 1, ptr noundef %9)
  %15 = load i32, ptr %9, align 4, !tbaa !7
  %16 = icmp ne i32 %15, 0
  br i1 %16, label %17, label %21

17:                                               ; preds = %4
  %18 = load ptr, ptr %5, align 8, !tbaa !3
  %19 = load i32, ptr %9, align 4, !tbaa !7
  %20 = load ptr, ptr %8, align 8, !tbaa !3
  call void @_ZL9decStatusP9decNumberjP10decContext(ptr noundef %18, i32 noundef %19, ptr noundef %20)
  br label %21

21:                                               ; preds = %17, %4
  %22 = load ptr, ptr %5, align 8, !tbaa !3
  call void @llvm.lifetime.end.p0(i64 4, ptr %9) #8
  ret ptr %22
}

; Function Attrs: mustprogress nounwind uwtable
define ptr @uprv_decNumberZero_77(ptr noundef %0) #2 {
  %2 = alloca ptr, align 8
  store ptr %0, ptr %2, align 8, !tbaa !3
  %3 = load ptr, ptr %2, align 8, !tbaa !3
  %4 = getelementptr inbounds nuw %struct.decNumber, ptr %3, i32 0, i32 2
  store i8 0, ptr %4, align 4, !tbaa !9
  %5 = load ptr, ptr %2, align 8, !tbaa !3
  %6 = getelementptr inbounds nuw %struct.decNumber, ptr %5, i32 0, i32 1
  store i32 0, ptr %6, align 4, !tbaa !17
  %7 = load ptr, ptr %2, align 8, !tbaa !3
  %8 = getelementptr inbounds nuw %struct.decNumber, ptr %7, i32 0, i32 0
  store i32 1, ptr %8, align 4, !tbaa !16
  %9 = load ptr, ptr %2, align 8, !tbaa !3
  %10 = getelementptr inbounds nuw %struct.decNumber, ptr %9, i32 0, i32 3
  %11 = getelementptr inbounds [1 x i8], ptr %10, i64 0, i64 0
  store i8 0, ptr %11, align 1, !tbaa !13
  %12 = load ptr, ptr %2, align 8, !tbaa !3
  ret ptr %12
}

; Function Attrs: mustprogress nounwind uwtable
define ptr @uprv_decNumberCopy_77(ptr noundef %0, ptr noundef %1) #2 {
  %3 = alloca ptr, align 8
  %4 = alloca ptr, align 8
  %5 = alloca ptr, align 8
  %6 = alloca ptr, align 8
  %7 = alloca ptr, align 8
  %8 = alloca ptr, align 8
  store ptr %0, ptr %4, align 8, !tbaa !3
  store ptr %1, ptr %5, align 8, !tbaa !3
  %9 = load ptr, ptr %4, align 8, !tbaa !3
  %10 = load ptr, ptr %5, align 8, !tbaa !3
  %11 = icmp eq ptr %9, %10
  br i1 %11, label %12, label %14

12:                                               ; preds = %2
  %13 = load ptr, ptr %4, align 8, !tbaa !3
  store ptr %13, ptr %3, align 8
  br label %92

14:                                               ; preds = %2
  %15 = load ptr, ptr %5, align 8, !tbaa !3
  %16 = getelementptr inbounds nuw %struct.decNumber, ptr %15, i32 0, i32 2
  %17 = load i8, ptr %16, align 4, !tbaa !9
  %18 = load ptr, ptr %4, align 8, !tbaa !3
  %19 = getelementptr inbounds nuw %struct.decNumber, ptr %18, i32 0, i32 2
  store i8 %17, ptr %19, align 4, !tbaa !9
  %20 = load ptr, ptr %5, align 8, !tbaa !3
  %21 = getelementptr inbounds nuw %struct.decNumber, ptr %20, i32 0, i32 1
  %22 = load i32, ptr %21, align 4, !tbaa !17
  %23 = load ptr, ptr %4, align 8, !tbaa !3
  %24 = getelementptr inbounds nuw %struct.decNumber, ptr %23, i32 0, i32 1
  store i32 %22, ptr %24, align 4, !tbaa !17
  %25 = load ptr, ptr %5, align 8, !tbaa !3
  %26 = getelementptr inbounds nuw %struct.decNumber, ptr %25, i32 0, i32 0
  %27 = load i32, ptr %26, align 4, !tbaa !16
  %28 = load ptr, ptr %4, align 8, !tbaa !3
  %29 = getelementptr inbounds nuw %struct.decNumber, ptr %28, i32 0, i32 0
  store i32 %27, ptr %29, align 4, !tbaa !16
  %30 = load ptr, ptr %5, align 8, !tbaa !3
  %31 = getelementptr inbounds nuw %struct.decNumber, ptr %30, i32 0, i32 3
  %32 = getelementptr inbounds [1 x i8], ptr %31, i64 0, i64 0
  %33 = load i8, ptr %32, align 1, !tbaa !13
  %34 = load ptr, ptr %4, align 8, !tbaa !3
  %35 = getelementptr inbounds nuw %struct.decNumber, ptr %34, i32 0, i32 3
  %36 = getelementptr inbounds [1 x i8], ptr %35, i64 0, i64 0
  store i8 %33, ptr %36, align 1, !tbaa !13
  %37 = load ptr, ptr %5, align 8, !tbaa !3
  %38 = getelementptr inbounds nuw %struct.decNumber, ptr %37, i32 0, i32 0
  %39 = load i32, ptr %38, align 4, !tbaa !16
  %40 = icmp sgt i32 %39, 1
  br i1 %40, label %41, label %90

41:                                               ; preds = %14
  call void @llvm.lifetime.start.p0(i64 8, ptr %6) #8
  call void @llvm.lifetime.start.p0(i64 8, ptr %7) #8
  call void @llvm.lifetime.start.p0(i64 8, ptr %8) #8
  %42 = load ptr, ptr %4, align 8, !tbaa !3
  %43 = getelementptr inbounds nuw %struct.decNumber, ptr %42, i32 0, i32 3
  %44 = getelementptr inbounds [1 x i8], ptr %43, i64 0, i64 0
  %45 = getelementptr inbounds i8, ptr %44, i64 1
  store ptr %45, ptr %8, align 8, !tbaa !11
  %46 = load ptr, ptr %5, align 8, !tbaa !3
  %47 = getelementptr inbounds nuw %struct.decNumber, ptr %46, i32 0, i32 3
  %48 = getelementptr inbounds [1 x i8], ptr %47, i64 0, i64 0
  %49 = load ptr, ptr %5, align 8, !tbaa !3
  %50 = getelementptr inbounds nuw %struct.decNumber, ptr %49, i32 0, i32 0
  %51 = load i32, ptr %50, align 4, !tbaa !16
  %52 = icmp sle i32 %51, 49
  br i1 %52, label %53, label %61

53:                                               ; preds = %41
  %54 = load ptr, ptr %5, align 8, !tbaa !3
  %55 = getelementptr inbounds nuw %struct.decNumber, ptr %54, i32 0, i32 0
  %56 = load i32, ptr %55, align 4, !tbaa !16
  %57 = sext i32 %56 to i64
  %58 = getelementptr inbounds [50 x i8], ptr @_ZL8d2utable, i64 0, i64 %57
  %59 = load i8, ptr %58, align 1, !tbaa !13
  %60 = zext i8 %59 to i32
  br label %68

61:                                               ; preds = %41
  %62 = load ptr, ptr %5, align 8, !tbaa !3
  %63 = getelementptr inbounds nuw %struct.decNumber, ptr %62, i32 0, i32 0
  %64 = load i32, ptr %63, align 4, !tbaa !16
  %65 = add nsw i32 %64, 1
  %66 = sub nsw i32 %65, 1
  %67 = sdiv i32 %66, 1
  br label %68

68:                                               ; preds = %61, %53
  %69 = phi i32 [ %60, %53 ], [ %67, %61 ]
  %70 = sext i32 %69 to i64
  %71 = getelementptr inbounds i8, ptr %48, i64 %70
  store ptr %71, ptr %6, align 8, !tbaa !11
  %72 = load ptr, ptr %5, align 8, !tbaa !3
  %73 = getelementptr inbounds nuw %struct.decNumber, ptr %72, i32 0, i32 3
  %74 = getelementptr inbounds [1 x i8], ptr %73, i64 0, i64 0
  %75 = getelementptr inbounds i8, ptr %74, i64 1
  store ptr %75, ptr %7, align 8, !tbaa !11
  br label %76

76:                                               ; preds = %84, %68
  %77 = load ptr, ptr %7, align 8, !tbaa !11
  %78 = load ptr, ptr %6, align 8, !tbaa !11
  %79 = icmp ult ptr %77, %78
  br i1 %79, label %80, label %89

80:                                               ; preds = %76
  %81 = load ptr, ptr %7, align 8, !tbaa !11
  %82 = load i8, ptr %81, align 1, !tbaa !13
  %83 = load ptr, ptr %8, align 8, !tbaa !11
  store i8 %82, ptr %83, align 1, !tbaa !13
  br label %84

84:                                               ; preds = %80
  %85 = load ptr, ptr %7, align 8, !tbaa !11
  %86 = getelementptr inbounds nuw i8, ptr %85, i32 1
  store ptr %86, ptr %7, align 8, !tbaa !11
  %87 = load ptr, ptr %8, align 8, !tbaa !11
  %88 = getelementptr inbounds nuw i8, ptr %87, i32 1
  store ptr %88, ptr %8, align 8, !tbaa !11
  br label %76, !llvm.loop !53

89:                                               ; preds = %76
  call void @llvm.lifetime.end.p0(i64 8, ptr %8) #8
  call void @llvm.lifetime.end.p0(i64 8, ptr %7) #8
  call void @llvm.lifetime.end.p0(i64 8, ptr %6) #8
  br label %90

90:                                               ; preds = %89, %14
  %91 = load ptr, ptr %4, align 8, !tbaa !3
  store ptr %91, ptr %3, align 8
  br label %92

92:                                               ; preds = %90, %12
  %93 = load ptr, ptr %3, align 8
  ret ptr %93
}

; Function Attrs: mustprogress uwtable
define ptr @uprv_decNumberToIntegralExact_77(ptr noundef %0, ptr noundef %1, ptr noundef %2) #0 {
  %4 = alloca ptr, align 8
  %5 = alloca ptr, align 8
  %6 = alloca ptr, align 8
  %7 = alloca ptr, align 8
  %8 = alloca %struct.decNumber, align 4
  %9 = alloca %struct.decContext, align 4
  %10 = alloca i32, align 4
  %11 = alloca i32, align 4
  store ptr %0, ptr %5, align 8, !tbaa !3
  store ptr %1, ptr %6, align 8, !tbaa !3
  store ptr %2, ptr %7, align 8, !tbaa !3
  call void @llvm.lifetime.start.p0(i64 12, ptr %8) #8
  call void @llvm.lifetime.start.p0(i64 28, ptr %9) #8
  call void @llvm.lifetime.start.p0(i64 4, ptr %10) #8
  store i32 0, ptr %10, align 4, !tbaa !7
  %12 = load ptr, ptr %6, align 8, !tbaa !3
  %13 = getelementptr inbounds nuw %struct.decNumber, ptr %12, i32 0, i32 2
  %14 = load i8, ptr %13, align 4, !tbaa !9
  %15 = zext i8 %14 to i32
  %16 = and i32 %15, 112
  %17 = icmp ne i32 %16, 0
  br i1 %17, label %18, label %35

18:                                               ; preds = %3
  %19 = load ptr, ptr %6, align 8, !tbaa !3
  %20 = getelementptr inbounds nuw %struct.decNumber, ptr %19, i32 0, i32 2
  %21 = load i8, ptr %20, align 4, !tbaa !9
  %22 = zext i8 %21 to i32
  %23 = and i32 %22, 64
  %24 = icmp ne i32 %23, 0
  br i1 %24, label %25, label %29

25:                                               ; preds = %18
  %26 = load ptr, ptr %5, align 8, !tbaa !3
  %27 = load ptr, ptr %6, align 8, !tbaa !3
  %28 = call ptr @uprv_decNumberCopy_77(ptr noundef %26, ptr noundef %27)
  br label %34

29:                                               ; preds = %18
  %30 = load ptr, ptr %5, align 8, !tbaa !3
  %31 = load ptr, ptr %6, align 8, !tbaa !3
  %32 = load ptr, ptr %7, align 8, !tbaa !3
  %33 = call noundef ptr @_ZL7decNaNsP9decNumberPKS_S2_P10decContextPj(ptr noundef %30, ptr noundef %31, ptr noundef null, ptr noundef %32, ptr noundef %10)
  br label %34

34:                                               ; preds = %29, %25
  br label %59

35:                                               ; preds = %3
  %36 = load ptr, ptr %6, align 8, !tbaa !3
  %37 = getelementptr inbounds nuw %struct.decNumber, ptr %36, i32 0, i32 1
  %38 = load i32, ptr %37, align 4, !tbaa !17
  %39 = icmp sge i32 %38, 0
  br i1 %39, label %40, label %44

40:                                               ; preds = %35
  %41 = load ptr, ptr %5, align 8, !tbaa !3
  %42 = load ptr, ptr %6, align 8, !tbaa !3
  %43 = call ptr @uprv_decNumberCopy_77(ptr noundef %41, ptr noundef %42)
  store ptr %43, ptr %4, align 8
  store i32 1, ptr %11, align 4
  br label %68

44:                                               ; preds = %35
  %45 = load ptr, ptr %7, align 8, !tbaa !3
  call void @llvm.memcpy.p0.p0.i64(ptr align 4 %9, ptr align 4 %45, i64 28, i1 false), !tbaa.struct !66
  %46 = load ptr, ptr %6, align 8, !tbaa !3
  %47 = getelementptr inbounds nuw %struct.decNumber, ptr %46, i32 0, i32 0
  %48 = load i32, ptr %47, align 4, !tbaa !16
  %49 = getelementptr inbounds nuw %struct.decContext, ptr %9, i32 0, i32 0
  store i32 %48, ptr %49, align 4, !tbaa !32
  %50 = getelementptr inbounds nuw %struct.decContext, ptr %9, i32 0, i32 4
  store i32 0, ptr %50, align 4, !tbaa !106
  %51 = call ptr @uprv_decNumberZero_77(ptr noundef %8)
  %52 = load ptr, ptr %5, align 8, !tbaa !3
  %53 = load ptr, ptr %6, align 8, !tbaa !3
  %54 = call ptr @uprv_decNumberQuantize_77(ptr noundef %52, ptr noundef %53, ptr noundef %8, ptr noundef %9)
  %55 = getelementptr inbounds nuw %struct.decContext, ptr %9, i32 0, i32 5
  %56 = load i32, ptr %55, align 4, !tbaa !107
  %57 = load i32, ptr %10, align 4, !tbaa !7
  %58 = or i32 %57, %56
  store i32 %58, ptr %10, align 4, !tbaa !7
  br label %59

59:                                               ; preds = %44, %34
  %60 = load i32, ptr %10, align 4, !tbaa !7
  %61 = icmp ne i32 %60, 0
  br i1 %61, label %62, label %66

62:                                               ; preds = %59
  %63 = load ptr, ptr %5, align 8, !tbaa !3
  %64 = load i32, ptr %10, align 4, !tbaa !7
  %65 = load ptr, ptr %7, align 8, !tbaa !3
  call void @_ZL9decStatusP9decNumberjP10decContext(ptr noundef %63, i32 noundef %64, ptr noundef %65)
  br label %66

66:                                               ; preds = %62, %59
  %67 = load ptr, ptr %5, align 8, !tbaa !3
  store ptr %67, ptr %4, align 8
  store i32 1, ptr %11, align 4
  br label %68

68:                                               ; preds = %66, %40
  call void @llvm.lifetime.end.p0(i64 4, ptr %10) #8
  call void @llvm.lifetime.end.p0(i64 28, ptr %9) #8
  call void @llvm.lifetime.end.p0(i64 12, ptr %8) #8
  %69 = load ptr, ptr %4, align 8
  ret ptr %69
}