; Function Attrs: mustprogress uwtable
define noundef ptr @uprv_decNumberToIntegralExact_77(ptr noundef returned %0, ptr noundef %1, ptr noundef %2) local_unnamed_addr #3 {
  %4 = alloca i32, align 4
  %5 = alloca %struct.decNumber, align 4
  %6 = alloca %struct.decContext, align 4
  %7 = alloca i32, align 4
  call void @llvm.lifetime.start.p0(i64 12, ptr nonnull %5) #16
  call void @llvm.lifetime.start.p0(i64 28, ptr nonnull %6) #16
  call void @llvm.lifetime.start.p0(i64 4, ptr nonnull %7) #16
  store i32 0, ptr %7, align 4, !tbaa !14
  %8 = getelementptr inbounds nuw i8, ptr %1, i64 8
  %9 = load i8, ptr %8, align 4, !tbaa !3
  %10 = zext i8 %9 to i32
  %11 = and i32 %10, 112
  %.not = icmp eq i32 %11, 0
  br i1 %.not, label %42, label %12

12:                                               ; preds = %3
  %13 = and i32 %10, 64
  %.not19 = icmp eq i32 %13, 0
  br i1 %.not19, label %40, label %14

14:                                               ; preds = %12
  %15 = icmp eq ptr %0, %1
  br i1 %15, label %uprv_decNumberCopy_77.exit32, label %16

16:                                               ; preds = %14
  %17 = getelementptr inbounds nuw i8, ptr %0, i64 8
  store i8 %9, ptr %17, align 4, !tbaa !3
  %18 = getelementptr inbounds nuw i8, ptr %1, i64 4
  %19 = load i32, ptr %18, align 4, !tbaa !8
  %20 = getelementptr inbounds nuw i8, ptr %0, i64 4
  store i32 %19, ptr %20, align 4, !tbaa !8
  %21 = load i32, ptr %1, align 4, !tbaa !9
  store i32 %21, ptr %0, align 4, !tbaa !9
  %.ptr.i = getelementptr inbounds nuw i8, ptr %1, i64 9
  %22 = load i8, ptr %.ptr.i, align 1, !tbaa !10
  %23 = getelementptr inbounds nuw i8, ptr %0, i64 9
  store i8 %22, ptr %23, align 1, !tbaa !10
  %24 = load i32, ptr %1, align 4, !tbaa !9
  %25 = icmp sgt i32 %24, 1
  br i1 %25, label %26, label %uprv_decNumberCopy_77.exit32

26:                                               ; preds = %16
  %27 = getelementptr inbounds nuw i8, ptr %0, i64 10
  %28 = icmp samesign ult i32 %24, 50
  br i1 %28, label %29, label %.thread.i

.thread.i:                                        ; preds = %26
  %narrow34.i = add nuw i32 %24, 9
  %.add35.i = zext i32 %narrow34.i to i64
  %.ptr3336.i = getelementptr inbounds nuw i8, ptr %1, i64 %.add35.i
  br label %.lr.ph.preheader.i

29:                                               ; preds = %26
  %30 = zext nneg i32 %24 to i64
  %31 = getelementptr inbounds nuw [50 x i8], ptr @_ZL8d2utable, i64 0, i64 %30
  %32 = load i8, ptr %31, align 1, !tbaa !10
  %33 = zext i8 %32 to i64
  %34 = getelementptr inbounds nuw i8, ptr %1, i64 %33
  %.ptr33.i = getelementptr inbounds nuw i8, ptr %34, i64 9
  br label %.lr.ph.preheader.i

.lr.ph.preheader.i:                               ; preds = %29, %.thread.i
  %.ptr3337.i = phi ptr [ %.ptr3336.i, %.thread.i ], [ %.ptr33.i, %29 ]
  %35 = getelementptr inbounds nuw i8, ptr %1, i64 10
  br label %.lr.ph.i

.lr.ph.i:                                         ; preds = %.lr.ph.i, %.lr.ph.preheader.i
  %.032.i = phi ptr [ %38, %.lr.ph.i ], [ %27, %.lr.ph.preheader.i ]
  %.02631.i = phi ptr [ %37, %.lr.ph.i ], [ %35, %.lr.ph.preheader.i ]
  %36 = load i8, ptr %.02631.i, align 1, !tbaa !10
  store i8 %36, ptr %.032.i, align 1, !tbaa !10
  %37 = getelementptr inbounds nuw i8, ptr %.02631.i, i64 1
  %38 = getelementptr inbounds nuw i8, ptr %.032.i, i64 1
  %39 = icmp ult ptr %37, %.ptr3337.i
  br i1 %39, label %.lr.ph.i, label %uprv_decNumberCopy_77.exit32, !llvm.loop !49

40:                                               ; preds = %12
  %41 = call fastcc noundef ptr @_ZL7decNaNsP9decNumberPKS_S2_P10decContextPj(ptr noundef %0, ptr noundef nonnull %1, ptr noundef null, ptr noundef %2, ptr noundef %7)
  %.pr.pre = load i32, ptr %7, align 4, !tbaa !14
  br label %uprv_decNumberCopy_77.exit

42:                                               ; preds = %3
  %43 = getelementptr inbounds nuw i8, ptr %1, i64 4
  %44 = load i32, ptr %43, align 4, !tbaa !8
  %45 = icmp sgt i32 %44, -1
  br i1 %45, label %46, label %70

46:                                               ; preds = %42
  %47 = icmp eq ptr %0, %1
  br i1 %47, label %uprv_decNumberCopy_77.exit32, label %48

48:                                               ; preds = %46
  %49 = getelementptr inbounds nuw i8, ptr %0, i64 8
  store i8 %9, ptr %49, align 4, !tbaa !3
  %50 = getelementptr inbounds nuw i8, ptr %0, i64 4
  store i32 %44, ptr %50, align 4, !tbaa !8
  %51 = load i32, ptr %1, align 4, !tbaa !9
  store i32 %51, ptr %0, align 4, !tbaa !9
  %.ptr.i21 = getelementptr inbounds nuw i8, ptr %1, i64 9
  %52 = load i8, ptr %.ptr.i21, align 1, !tbaa !10
  %53 = getelementptr inbounds nuw i8, ptr %0, i64 9
  store i8 %52, ptr %53, align 1, !tbaa !10
  %54 = load i32, ptr %1, align 4, !tbaa !9
  %55 = icmp sgt i32 %54, 1
  br i1 %55, label %56, label %uprv_decNumberCopy_77.exit32

56:                                               ; preds = %48
  %57 = getelementptr inbounds nuw i8, ptr %0, i64 10
  %58 = icmp samesign ult i32 %54, 50
  br i1 %58, label %59, label %.thread.i22

.thread.i22:                                      ; preds = %56
  %narrow34.i23 = add nuw i32 %54, 9
  %.add35.i24 = zext i32 %narrow34.i23 to i64
  %.ptr3336.i25 = getelementptr inbounds nuw i8, ptr %1, i64 %.add35.i24
  br label %.lr.ph.preheader.i26

59:                                               ; preds = %56
  %60 = zext nneg i32 %54 to i64
  %61 = getelementptr inbounds nuw [50 x i8], ptr @_ZL8d2utable, i64 0, i64 %60
  %62 = load i8, ptr %61, align 1, !tbaa !10
  %63 = zext i8 %62 to i64
  %64 = getelementptr inbounds nuw i8, ptr %1, i64 %63
  %.ptr33.i31 = getelementptr inbounds nuw i8, ptr %64, i64 9
  br label %.lr.ph.preheader.i26

.lr.ph.preheader.i26:                             ; preds = %59, %.thread.i22
  %.ptr3337.i27 = phi ptr [ %.ptr3336.i25, %.thread.i22 ], [ %.ptr33.i31, %59 ]
  %65 = getelementptr inbounds nuw i8, ptr %1, i64 10
  br label %.lr.ph.i28

.lr.ph.i28:                                       ; preds = %.lr.ph.i28, %.lr.ph.preheader.i26
  %.032.i29 = phi ptr [ %68, %.lr.ph.i28 ], [ %57, %.lr.ph.preheader.i26 ]
  %.02631.i30 = phi ptr [ %67, %.lr.ph.i28 ], [ %65, %.lr.ph.preheader.i26 ]
  %66 = load i8, ptr %.02631.i30, align 1, !tbaa !10
  store i8 %66, ptr %.032.i29, align 1, !tbaa !10
  %67 = getelementptr inbounds nuw i8, ptr %.02631.i30, i64 1
  %68 = getelementptr inbounds nuw i8, ptr %.032.i29, i64 1
  %69 = icmp ult ptr %67, %.ptr3337.i27
  br i1 %69, label %.lr.ph.i28, label %uprv_decNumberCopy_77.exit32, !llvm.loop !49

70:                                               ; preds = %42
  call void @llvm.memcpy.p0.p0.i64(ptr noundef nonnull align 4 dereferenceable(28) %6, ptr noundef nonnull align 4 dereferenceable(28) %2, i64 28, i1 false), !tbaa.struct !61
  %71 = load i32, ptr %1, align 4, !tbaa !9
  store i32 %71, ptr %6, align 4, !tbaa !27
  %72 = getelementptr inbounds nuw i8, ptr %6, i64 16
  store i32 0, ptr %72, align 4, !tbaa !91
  %73 = getelementptr inbounds nuw i8, ptr %5, i64 8
  store i8 0, ptr %73, align 4, !tbaa !3
  %74 = getelementptr inbounds nuw i8, ptr %5, i64 4
  store i32 0, ptr %74, align 4, !tbaa !8
  store i32 1, ptr %5, align 4, !tbaa !9
  %75 = getelementptr inbounds nuw i8, ptr %5, i64 9
  store i8 0, ptr %75, align 1, !tbaa !10
  call void @llvm.lifetime.start.p0(i64 4, ptr nonnull %4) #16
  store i32 0, ptr %4, align 4, !tbaa !14
  %76 = call fastcc noundef ptr @_ZL13decQuantizeOpP9decNumberPKS_S2_P10decContexthPj(ptr noundef %0, ptr noundef nonnull %1, ptr noundef nonnull %5, ptr noundef nonnull %6, i8 noundef zeroext 1, ptr noundef %4)
  %77 = load i32, ptr %4, align 4, !tbaa !14
  %.not.i = icmp eq i32 %77, 0
  br i1 %.not.i, label %uprv_decNumberQuantize_77.exit, label %78

78:                                               ; preds = %70
  %79 = and i32 %77, 221
  %.not.i.i = icmp eq i32 %79, 0
  br i1 %.not.i.i, label %_ZL9decStatusP9decNumberjP10decContext.exit.i, label %80

80:                                               ; preds = %78
  %81 = and i32 %77, 1073741824
  %.not6.i.i = icmp eq i32 %81, 0
  br i1 %.not6.i.i, label %84, label %82

82:                                               ; preds = %80
  %83 = and i32 %77, -1073741825
  br label %_ZL9decStatusP9decNumberjP10decContext.exit.i

84:                                               ; preds = %80
  %85 = getelementptr inbounds nuw i8, ptr %0, i64 8
  %86 = getelementptr inbounds nuw i8, ptr %0, i64 4
  store i32 0, ptr %86, align 4, !tbaa !8
  store i32 1, ptr %0, align 4, !tbaa !9
  %87 = getelementptr inbounds nuw i8, ptr %0, i64 9
  store i8 0, ptr %87, align 1, !tbaa !10
  store i8 32, ptr %85, align 4, !tbaa !3
  br label %_ZL9decStatusP9decNumberjP10decContext.exit.i

_ZL9decStatusP9decNumberjP10decContext.exit.i:    ; preds = %84, %82, %78
  %.0.i.i = phi i32 [ %83, %82 ], [ %77, %84 ], [ %77, %78 ]
  %88 = call ptr @uprv_decContextSetStatus_77(ptr noundef nonnull %6, i32 noundef %.0.i.i)
  br label %uprv_decNumberQuantize_77.exit

uprv_decNumberQuantize_77.exit:                   ; preds = %70, %_ZL9decStatusP9decNumberjP10decContext.exit.i
  call void @llvm.lifetime.end.p0(i64 4, ptr nonnull %4) #16
  %89 = getelementptr inbounds nuw i8, ptr %6, i64 20
  %90 = load i32, ptr %89, align 4, !tbaa !92
  br label %uprv_decNumberCopy_77.exit

uprv_decNumberCopy_77.exit:                       ; preds = %40, %uprv_decNumberQuantize_77.exit
  %91 = phi i32 [ %90, %uprv_decNumberQuantize_77.exit ], [ %.pr.pre, %40 ]
  %.not20 = icmp eq i32 %91, 0
  br i1 %.not20, label %uprv_decNumberCopy_77.exit32, label %92

92:                                               ; preds = %uprv_decNumberCopy_77.exit
  %93 = and i32 %91, 221
  %.not.i33 = icmp eq i32 %93, 0
  br i1 %.not.i33, label %_ZL9decStatusP9decNumberjP10decContext.exit, label %94

94:                                               ; preds = %92
  %95 = and i32 %91, 1073741824
  %.not6.i = icmp eq i32 %95, 0
  br i1 %.not6.i, label %98, label %96

96:                                               ; preds = %94
  %97 = and i32 %91, -1073741825
  br label %_ZL9decStatusP9decNumberjP10decContext.exit

98:                                               ; preds = %94
  %99 = getelementptr inbounds nuw i8, ptr %0, i64 8
  %100 = getelementptr inbounds nuw i8, ptr %0, i64 4
  store i32 0, ptr %100, align 4, !tbaa !8
  store i32 1, ptr %0, align 4, !tbaa !9
  %101 = getelementptr inbounds nuw i8, ptr %0, i64 9
  store i8 0, ptr %101, align 1, !tbaa !10
  store i8 32, ptr %99, align 4, !tbaa !3
  br label %_ZL9decStatusP9decNumberjP10decContext.exit

_ZL9decStatusP9decNumberjP10decContext.exit:      ; preds = %92, %96, %98
  %.0.i = phi i32 [ %97, %96 ], [ %91, %98 ], [ %91, %92 ]
  %102 = call ptr @uprv_decContextSetStatus_77(ptr noundef %2, i32 noundef %.0.i)
  br label %uprv_decNumberCopy_77.exit32

uprv_decNumberCopy_77.exit32:                     ; preds = %.lr.ph.i, %.lr.ph.i28, %16, %14, %48, %46, %uprv_decNumberCopy_77.exit, %_ZL9decStatusP9decNumberjP10decContext.exit
  call void @llvm.lifetime.end.p0(i64 4, ptr nonnull %7) #16
  call void @llvm.lifetime.end.p0(i64 28, ptr nonnull %6) #16
  call void @llvm.lifetime.end.p0(i64 12, ptr nonnull %5) #16
  ret ptr %0
}